target datalayout = "e-m:e-p270:32:32-p271:32:32-p272:64:64-i64:64-i128:128-f80:128-n8:16:32:64-S128"
target triple = "x86_64-pc-linux-gnu"

@.str = private unnamed_addr constant [5 x i8] c"Data\00", align 1
@proto_register_data.ett = internal global [1 x ptr] [ptr @ett_data], align 8
@.str.12 = private unnamed_addr constant [5 x i8] c"data\00", align 1
@proto_data = internal global i32 0, align 4
@data_handle = internal global ptr null, align 8
@.str.13 = private unnamed_addr constant [17 x i8] c"datapref.newpane\00", align 1
@.str.14 = private unnamed_addr constant [49 x i8] c"Show not dissected data on new Packet Bytes pane\00", align 1
@new_pane = internal global i8 0, align 1
@.str.15 = private unnamed_addr constant [16 x i8] c"uncompress_data\00", align 1
@.str.16 = private unnamed_addr constant [39 x i8] c"Try to uncompress zlib compressed data\00", align 1
@.str.17 = private unnamed_addr constant [78 x i8] c"Try to uncompress zlib compressed data and show as uncompressed if successful\00", align 1
@uncompress_data = internal global i8 0, align 1
@.str.18 = private unnamed_addr constant [13 x i8] c"show_as_text\00", align 1
@.str.19 = private unnamed_addr constant [18 x i8] c"Show data as text\00", align 1
@.str.20 = private unnamed_addr constant [45 x i8] c"Show data as text in the Packet Details pane\00", align 1
@show_as_text = internal global i8 0, align 1
@.str.21 = private unnamed_addr constant [9 x i8] c"md5_hash\00", align 1
@.str.22 = private unnamed_addr constant [18 x i8] c"Generate MD5 hash\00", align 1
@.str.23 = private unnamed_addr constant [74 x i8] c"Whether or not MD5 hashes should be generated and shown for each payload.\00", align 1
@generate_md5_hash = internal global i8 0, align 1

; Function Attrs: null_pointer_is_valid sspstrong uwtable
define hidden void @proto_register_data() #0 {
  %1 = alloca ptr, align 8
  call void @llvm.lifetime.start.p0(i64 8, ptr %1) #4
  %2 = call i32 @proto_register_protocol(ptr noundef @.str, ptr noundef @.str, ptr noundef @.str.12)
  store i32 %2, ptr @proto_data, align 4
  %3 = load i32, ptr @proto_data, align 4
  %4 = call ptr @register_dissector(ptr noundef @.str.12, ptr noundef @dissect_data, i32 noundef %3)
  store ptr %4, ptr @data_handle, align 8
  %5 = load i32, ptr @proto_data, align 4
  call void @proto_register_field_array(i32 noundef %5, ptr noundef @proto_register_data.hf, i32 noundef 6)
  call void @proto_register_subtree_array(ptr noundef @proto_register_data.ett, i32 noundef 1)
  %6 = load i32, ptr @proto_data, align 4
  %7 = call ptr @prefs_register_protocol(i32 noundef %6, ptr noundef null)
  store ptr %7, ptr %1, align 8
  %8 = load ptr, ptr %1, align 8
  call void @prefs_register_bool_preference(ptr noundef %8, ptr noundef @.str.13, ptr noundef @.str.14, ptr noundef @.str.14, ptr noundef @new_pane)
  %9 = load ptr, ptr %1, align 8
  call void @prefs_register_bool_preference(ptr noundef %9, ptr noundef @.str.15, ptr noundef @.str.16, ptr noundef @.str.17, ptr noundef @uncompress_data)
  %10 = load ptr, ptr %1, align 8
  call void @prefs_register_bool_preference(ptr noundef %10, ptr noundef @.str.18, ptr noundef @.str.19, ptr noundef @.str.20, ptr noundef @show_as_text)
  %11 = load ptr, ptr %1, align 8
  call void @prefs_register_bool_preference(ptr noundef %11, ptr noundef @.str.21, ptr noundef @.str.22, ptr noundef @.str.23, ptr noundef @generate_md5_hash)
  %12 = load i32, ptr @proto_data, align 4
  call void @proto_set_cant_toggle(i32 noundef %12)
  call void @llvm.lifetime.end.p0(i64 8, ptr %1) #4
  ret void
}