; Function Attrs: null_pointer_is_valid sspstrong uwtable
define hidden void @proto_register_data() local_unnamed_addr #0 {
  %1 = tail call i32 @proto_register_protocol(ptr noundef nonnull @.str, ptr noundef nonnull @.str, ptr noundef nonnull @.str.12)
  store i32 %1, ptr @proto_data, align 4
  %2 = tail call ptr @register_dissector(ptr noundef nonnull @.str.12, ptr noundef nonnull @dissect_data, i32 noundef %1)
  store ptr %2, ptr @data_handle, align 8
  %3 = load i32, ptr @proto_data, align 4
  tail call void @proto_register_field_array(i32 noundef %3, ptr noundef nonnull @proto_register_data.hf, i32 noundef 6)
  tail call void @proto_register_subtree_array(ptr noundef nonnull @proto_register_data.ett, i32 noundef 1)
  %4 = load i32, ptr @proto_data, align 4
  %5 = tail call ptr @prefs_register_protocol(i32 noundef %4, ptr noundef null)
  tail call void @prefs_register_bool_preference(ptr noundef %5, ptr noundef nonnull @.str.13, ptr noundef nonnull @.str.14, ptr noundef nonnull @.str.14, ptr noundef nonnull @new_pane)
  tail call void @prefs_register_bool_preference(ptr noundef %5, ptr noundef nonnull @.str.15, ptr noundef nonnull @.str.16, ptr noundef nonnull @.str.17, ptr noundef nonnull @uncompress_data)
  tail call void @prefs_register_bool_preference(ptr noundef %5, ptr noundef nonnull @.str.18, ptr noundef nonnull @.str.19, ptr noundef nonnull @.str.20, ptr noundef nonnull @show_as_text)
  tail call void @prefs_register_bool_preference(ptr noundef %5, ptr noundef nonnull @.str.21, ptr noundef nonnull @.str.22, ptr noundef nonnull @.str.23, ptr noundef nonnull @generate_md5_hash)
  %6 = load i32, ptr @proto_data, align 4
  tail call void @proto_set_cant_toggle(i32 noundef %6)
  ret void
}